target datalayout = "e-m:e-p270:32:32-p271:32:32-p272:64:64-i64:64-i128:128-f80:128-n8:16:32:64-S128"
target triple = "x86_64-pc-linux-gnu"

%struct.anon.5 = type { i32, i64, ptr, i32, i64, ptr }
%struct.H5T_t = type { %struct.H5O_shared_t, ptr, %struct.H5O_loc_t, %struct.H5G_name_t, ptr }
%struct.H5O_shared_t = type { i32, ptr, i32, %union.anon }
%union.anon = type { %struct.H5O_mesg_loc_t }
%struct.H5O_mesg_loc_t = type { i32, i64 }
%struct.H5O_loc_t = type { ptr, i64, i8 }
%struct.H5G_name_t = type { ptr, ptr, i32 }
%struct.H5T_shared_t = type { i64, i32, i32, i64, i32, i8, ptr, ptr, %union.anon.0 }
%union.anon.0 = type { %struct.H5T_array_t }
%struct.H5T_array_t = type { i64, i32, [32 x i64] }
%struct.H5T_conv_func_t = type { i8, %union.anon.14 }
%union.anon.14 = type { ptr }
%struct.H5T_path_t = type { [32 x i8], ptr, ptr, %struct.H5T_conv_func_t, i8, i8, %struct.H5T_cdata_t }
%struct.H5T_cdata_t = type { i32, i32, i8, ptr }

@H5T_g = internal global %struct.anon.5 zeroinitializer, align 8

; Function Attrs: nounwind uwtable
define zeroext i1 @H5T_path_noop(ptr noundef %0) #0 {
  %2 = alloca ptr, align 8
  store ptr %0, ptr %2, align 8
  %3 = load ptr, ptr %2, align 8
  %4 = getelementptr inbounds %struct.H5T_path_t, ptr %3, i32 0, i32 5
  %5 = load i8, ptr %4, align 1
  %6 = trunc i8 %5 to i1
  br i1 %6, label %23, label %7

7:                                                ; preds = %1
  %8 = load ptr, ptr %2, align 8
  %9 = getelementptr inbounds %struct.H5T_path_t, ptr %8, i32 0, i32 4
  %10 = load i8, ptr %9, align 8
  %11 = trunc i8 %10 to i1
  br i1 %11, label %12, label %21

12:                                               ; preds = %7
  %13 = load ptr, ptr %2, align 8
  %14 = getelementptr inbounds %struct.H5T_path_t, ptr %13, i32 0, i32 1
  %15 = load ptr, ptr %14, align 8
  %16 = load ptr, ptr %2, align 8
  %17 = getelementptr inbounds %struct.H5T_path_t, ptr %16, i32 0, i32 2
  %18 = load ptr, ptr %17, align 8
  %19 = call i32 @H5T_cmp(ptr noundef %15, ptr noundef %18, i1 noundef zeroext false)
  %20 = icmp eq i32 0, %19
  br label %21

21:                                               ; preds = %12, %7
  %22 = phi i1 [ false, %7 ], [ %20, %12 ]
  br label %23

23:                                               ; preds = %21, %1
  %24 = phi i1 [ true, %1 ], [ %22, %21 ]
  ret i1 %24
}

; Function Attrs: nounwind uwtable
define internal zeroext i1 @H5T__path_table_search(ptr noundef %0, ptr noundef %1, ptr noundef %2, ptr noundef %3) #0 {
  %5 = alloca ptr, align 8
  %6 = alloca ptr, align 8
  %7 = alloca ptr, align 8
  %8 = alloca ptr, align 8
  %9 = alloca i32, align 4
  %10 = alloca i32, align 4
  %11 = alloca i32, align 4
  %12 = alloca i32, align 4
  %13 = alloca i8, align 1
  store ptr %0, ptr %5, align 8
  store ptr %1, ptr %6, align 8
  store ptr %2, ptr %7, align 8
  store ptr %3, ptr %8, align 8
  store i8 0, ptr %13, align 1
  store i32 1, ptr %11, align 4
  store i32 1, ptr %9, align 4
  %14 = load i32, ptr @H5T_g, align 8
  store i32 %14, ptr %10, align 4
  store i32 -1, ptr %12, align 4
  br label %15

15:                                               ; preds = %63, %4
  %16 = load i32, ptr %12, align 4
  %17 = icmp ne i32 %16, 0
  br i1 %17, label %18, label %22

18:                                               ; preds = %15
  %19 = load i32, ptr %9, align 4
  %20 = load i32, ptr %10, align 4
  %21 = icmp slt i32 %19, %20
  br label %22

22:                                               ; preds = %18, %15
  %23 = phi i1 [ false, %15 ], [ %21, %18 ]
  br i1 %23, label %24, label %64

24:                                               ; preds = %22
  %25 = load i32, ptr %9, align 4
  %26 = load i32, ptr %10, align 4
  %27 = add nsw i32 %25, %26
  %28 = sdiv i32 %27, 2
  store i32 %28, ptr %11, align 4
  %29 = load ptr, ptr %5, align 8
  %30 = load ptr, ptr getelementptr inbounds (%struct.anon.5, ptr @H5T_g, i32 0, i32 2), align 8
  %31 = load i32, ptr %11, align 4
  %32 = sext i32 %31 to i64
  %33 = getelementptr inbounds ptr, ptr %30, i64 %32
  %34 = load ptr, ptr %33, align 8
  %35 = getelementptr inbounds %struct.H5T_path_t, ptr %34, i32 0, i32 1
  %36 = load ptr, ptr %35, align 8
  %37 = call i32 @H5T_cmp(ptr noundef %29, ptr noundef %36, i1 noundef zeroext false)
  store i32 %37, ptr %12, align 4
  %38 = load i32, ptr %12, align 4
  %39 = icmp eq i32 0, %38
  br i1 %39, label %40, label %50

40:                                               ; preds = %24
  %41 = load ptr, ptr %6, align 8
  %42 = load ptr, ptr getelementptr inbounds (%struct.anon.5, ptr @H5T_g, i32 0, i32 2), align 8
  %43 = load i32, ptr %11, align 4
  %44 = sext i32 %43 to i64
  %45 = getelementptr inbounds ptr, ptr %42, i64 %44
  %46 = load ptr, ptr %45, align 8
  %47 = getelementptr inbounds %struct.H5T_path_t, ptr %46, i32 0, i32 2
  %48 = load ptr, ptr %47, align 8
  %49 = call i32 @H5T_cmp(ptr noundef %41, ptr noundef %48, i1 noundef zeroext false)
  store i32 %49, ptr %12, align 4
  br label %50

50:                                               ; preds = %40, %24
  %51 = load i32, ptr %12, align 4
  %52 = icmp slt i32 %51, 0
  br i1 %52, label %53, label %55

53:                                               ; preds = %50
  %54 = load i32, ptr %11, align 4
  store i32 %54, ptr %10, align 4
  br label %63

55:                                               ; preds = %50
  %56 = load i32, ptr %12, align 4
  %57 = icmp sgt i32 %56, 0
  br i1 %57, label %58, label %61

58:                                               ; preds = %55
  %59 = load i32, ptr %11, align 4
  %60 = add nsw i32 %59, 1
  store i32 %60, ptr %9, align 4
  br label %62

61:                                               ; preds = %55
  store i8 1, ptr %13, align 1
  br label %62

62:                                               ; preds = %61, %58
  br label %63

63:                                               ; preds = %62, %53
  br label %15

64:                                               ; preds = %22
  %65 = load i32, ptr %11, align 4
  %66 = load ptr, ptr %7, align 8
  store i32 %65, ptr %66, align 4
  %67 = load ptr, ptr %8, align 8
  %68 = icmp ne ptr %67, null
  br i1 %68, label %69, label %72

69:                                               ; preds = %64
  %70 = load i32, ptr %12, align 4
  %71 = load ptr, ptr %8, align 8
  store i32 %70, ptr %71, align 4
  br label %72

72:                                               ; preds = %69, %64
  %73 = load i8, ptr %13, align 1
  %74 = trunc i8 %73 to i1
  ret i1 %74
}

; Function Attrs: nounwind uwtable
define zeroext i1 @H5T_noop_conv(ptr noundef %0, ptr noundef %1) #0 {
  %3 = alloca ptr, align 8
  %4 = alloca ptr, align 8
  %5 = alloca i8, align 1
  %6 = alloca i32, align 4
  store ptr %0, ptr %3, align 8
  store ptr %1, ptr %4, align 8
  store i8 0, ptr %5, align 1
  %7 = load ptr, ptr %3, align 8
  %8 = getelementptr inbounds %struct.H5T_t, ptr %7, i32 0, i32 1
  %9 = load ptr, ptr %8, align 8
  %10 = getelementptr inbounds %struct.H5T_shared_t, ptr %9, i32 0, i32 5
  %11 = load i8, ptr %10, align 4
  %12 = trunc i8 %11 to i1
  %13 = zext i1 %12 to i32
  %14 = icmp eq i32 %13, 0
  br i1 %14, label %15, label %30

15:                                               ; preds = %2
  %16 = load ptr, ptr %4, align 8
  %17 = getelementptr inbounds %struct.H5T_t, ptr %16, i32 0, i32 1
  %18 = load ptr, ptr %17, align 8
  %19 = getelementptr inbounds %struct.H5T_shared_t, ptr %18, i32 0, i32 5
  %20 = load i8, ptr %19, align 4
  %21 = trunc i8 %20 to i1
  %22 = zext i1 %21 to i32
  %23 = icmp eq i32 %22, 0
  br i1 %23, label %24, label %30

24:                                               ; preds = %15
  %25 = load ptr, ptr %3, align 8
  %26 = load ptr, ptr %4, align 8
  %27 = call i32 @H5T_cmp(ptr noundef %25, ptr noundef %26, i1 noundef zeroext true)
  %28 = icmp eq i32 0, %27
  br i1 %28, label %29, label %30

29:                                               ; preds = %24
  store i8 1, ptr %5, align 1
  br label %43

30:                                               ; preds = %24, %15, %2
  store i32 0, ptr %6, align 4
  %31 = load ptr, ptr %3, align 8
  %32 = load ptr, ptr %4, align 8
  %33 = call zeroext i1 @H5T__path_table_search(ptr noundef %31, ptr noundef %32, ptr noundef %6, ptr noundef null)
  br i1 %33, label %34, label %42

34:                                               ; preds = %30
  %35 = load ptr, ptr getelementptr inbounds (%struct.anon.5, ptr @H5T_g, i32 0, i32 2), align 8
  %36 = load i32, ptr %6, align 4
  %37 = sext i32 %36 to i64
  %38 = getelementptr inbounds ptr, ptr %35, i64 %37
  %39 = load ptr, ptr %38, align 8
  %40 = call zeroext i1 @H5T_path_noop(ptr noundef %39)
  %41 = zext i1 %40 to i8
  store i8 %41, ptr %5, align 1
  br label %42

42:                                               ; preds = %34, %30
  br label %43

43:                                               ; preds = %42, %29
  %44 = load i8, ptr %5, align 1
  %45 = trunc i8 %44 to i1
  ret i1 %45
}