; Function Attrs: nounwind uwtable
define zeroext i1 @H5T_noop_conv(ptr noundef %0, ptr noundef %1) local_unnamed_addr #0 {
  %3 = getelementptr inbounds i8, ptr %0, i64 40
  %4 = load ptr, ptr %3, align 8
  %5 = getelementptr inbounds i8, ptr %4, i64 28
  %6 = load i8, ptr %5, align 4
  %7 = and i8 %6, 1
  %8 = icmp eq i8 %7, 0
  br i1 %8, label %9, label %19

9:                                                ; preds = %2
  %10 = getelementptr inbounds i8, ptr %1, i64 40
  %11 = load ptr, ptr %10, align 8
  %12 = getelementptr inbounds i8, ptr %11, i64 28
  %13 = load i8, ptr %12, align 4
  %14 = and i8 %13, 1
  %15 = icmp eq i8 %14, 0
  br i1 %15, label %16, label %19

16:                                               ; preds = %9
  %17 = tail call i32 @H5T_cmp(ptr noundef nonnull %0, ptr noundef nonnull %1, i1 noundef zeroext true)
  %18 = icmp eq i32 %17, 0
  br i1 %18, label %H5T_path_noop.exit, label %19

19:                                               ; preds = %16, %9, %2
  %20 = load i32, ptr @H5T_g.0, align 8
  %21 = icmp sgt i32 %20, 1
  br i1 %21, label %.lr.ph.i, label %H5T_path_noop.exit

.lr.ph.i:                                         ; preds = %19, %39
  %.032.i = phi i1 [ %.1.i, %39 ], [ false, %19 ]
  %.02231.i = phi i32 [ %.123.i, %39 ], [ %20, %19 ]
  %.02430.i = phi i32 [ %.125.i, %39 ], [ 1, %19 ]
  %22 = add nuw nsw i32 %.02430.i, %.02231.i
  %23 = lshr i32 %22, 1
  %24 = load ptr, ptr @H5T_g.2, align 8
  %25 = zext nneg i32 %23 to i64
  %26 = getelementptr inbounds ptr, ptr %24, i64 %25
  %27 = load ptr, ptr %26, align 8
  %28 = getelementptr inbounds i8, ptr %27, i64 32
  %29 = load ptr, ptr %28, align 8
  %30 = tail call i32 @H5T_cmp(ptr noundef %0, ptr noundef %29, i1 noundef zeroext false)
  %31 = icmp eq i32 %30, 0
  br i1 %31, label %32, label %39

32:                                               ; preds = %.lr.ph.i
  %33 = load ptr, ptr @H5T_g.2, align 8
  %34 = getelementptr inbounds ptr, ptr %33, i64 %25
  %35 = load ptr, ptr %34, align 8
  %36 = getelementptr inbounds i8, ptr %35, i64 40
  %37 = load ptr, ptr %36, align 8
  %38 = tail call i32 @H5T_cmp(ptr noundef %1, ptr noundef %37, i1 noundef zeroext false)
  br label %39

39:                                               ; preds = %32, %.lr.ph.i
  %.120.i = phi i32 [ %38, %32 ], [ %30, %.lr.ph.i ]
  %40 = icmp slt i32 %.120.i, 0
  %.not28.i = icmp eq i32 %.120.i, 0
  %41 = add nuw nsw i32 %23, 1
  %spec.select29.i = select i1 %.not28.i, i1 true, i1 %.032.i
  %42 = icmp slt i32 %.120.i, 1
  %.125.i = select i1 %42, i32 %.02430.i, i32 %41
  %.123.i = select i1 %40, i32 %23, i32 %.02231.i
  %.1.i = select i1 %40, i1 %.032.i, i1 %spec.select29.i
  %43 = icmp ne i32 %.120.i, 0
  %44 = icmp slt i32 %.125.i, %.123.i
  %45 = select i1 %43, i1 %44, i1 false
  br i1 %45, label %.lr.ph.i, label %H5T__path_table_search.exit

H5T__path_table_search.exit:                      ; preds = %39
  br i1 %.1.i, label %46, label %H5T_path_noop.exit

46:                                               ; preds = %H5T__path_table_search.exit
  %47 = load ptr, ptr @H5T_g.2, align 8
  %48 = getelementptr inbounds ptr, ptr %47, i64 %25
  %49 = load ptr, ptr %48, align 8
  %50 = getelementptr inbounds i8, ptr %49, i64 65
  %51 = load i8, ptr %50, align 1
  %52 = trunc i8 %51 to i1
  br i1 %52, label %H5T_path_noop.exit, label %53

53:                                               ; preds = %46
  %54 = getelementptr inbounds i8, ptr %49, i64 64
  %55 = load i8, ptr %54, align 8
  %56 = trunc i8 %55 to i1
  br i1 %56, label %57, label %H5T_path_noop.exit

57:                                               ; preds = %53
  %58 = getelementptr inbounds i8, ptr %49, i64 32
  %59 = load ptr, ptr %58, align 8
  %60 = getelementptr inbounds i8, ptr %49, i64 40
  %61 = load ptr, ptr %60, align 8
  %62 = tail call i32 @H5T_cmp(ptr noundef %59, ptr noundef %61, i1 noundef zeroext false)
  %63 = icmp eq i32 %62, 0
  br label %H5T_path_noop.exit

H5T_path_noop.exit:                               ; preds = %19, %57, %53, %46, %16, %H5T__path_table_search.exit
  %.0 = phi i1 [ false, %H5T__path_table_search.exit ], [ true, %16 ], [ true, %46 ], [ false, %53 ], [ %63, %57 ], [ false, %19 ]
  ret i1 %.0
}